; Function Attrs: mustprogress nounwind uwtable
define hidden void @_ZN14MacroAssembler5addmqEi8RegisterS0_(ptr noundef nonnull align 8 dereferenceable(40) %0, i32 noundef %1, i32 %2, i32 %3) local_unnamed_addr #0 align 2 {
  %5 = alloca %class.Address, align 8
  %6 = alloca %class.Address, align 8
  store i32 %2, ptr %5, align 8
  %7 = getelementptr inbounds i8, ptr %5, i64 4
  store i32 -1, ptr %7, align 4
  %8 = getelementptr inbounds i8, ptr %5, i64 8
  store i32 -1, ptr %8, align 8
  %9 = getelementptr inbounds i8, ptr %5, i64 12
  store i32 -1, ptr %9, align 4
  %10 = getelementptr inbounds i8, ptr %5, i64 16
  store i32 %1, ptr %10, align 8
  %11 = getelementptr inbounds i8, ptr %5, i64 20
  store i8 0, ptr %11, align 4
  %12 = getelementptr inbounds i8, ptr %5, i64 24
  store ptr getelementptr inbounds inrange(-16, 72) (i8, ptr @_ZTV10Relocation, i64 16), ptr %12, align 8
  %13 = getelementptr inbounds i8, ptr %5, i64 32
  store ptr null, ptr %13, align 8
  %14 = getelementptr inbounds i8, ptr %5, i64 40
  store i32 0, ptr %14, align 8
  call void @_ZN9Assembler4addqE8Register7Address(ptr noundef nonnull align 8 dereferenceable(40) %0, i32 %3, ptr noundef nonnull %5) #5
  store i32 %2, ptr %6, align 8
  %15 = getelementptr inbounds i8, ptr %6, i64 4
  store i32 -1, ptr %15, align 4
  %16 = getelementptr inbounds i8, ptr %6, i64 8
  store i32 -1, ptr %16, align 8
  %17 = getelementptr inbounds i8, ptr %6, i64 12
  store i32 -1, ptr %17, align 4
  %18 = getelementptr inbounds i8, ptr %6, i64 16
  store i32 %1, ptr %18, align 8
  %19 = getelementptr inbounds i8, ptr %6, i64 20
  store i8 0, ptr %19, align 4
  %20 = getelementptr inbounds i8, ptr %6, i64 24
  store ptr getelementptr inbounds inrange(-16, 72) (i8, ptr @_ZTV10Relocation, i64 16), ptr %20, align 8
  %21 = getelementptr inbounds i8, ptr %6, i64 32
  store ptr null, ptr %21, align 8
  %22 = getelementptr inbounds i8, ptr %6, i64 40
  store i32 0, ptr %22, align 8
  call void @_ZN9Assembler4movqE7Address8Register(ptr noundef nonnull align 8 dereferenceable(40) %0, ptr noundef nonnull %6, i32 %3) #5
  ret void
}